; ModuleID = 'source-C-CXX/2/3185.c'
source_filename = "source-C-CXX/2/3185.c"
target datalayout = "e-m:e-p270:32:32-p271:32:32-p272:64:64-i64:64-f80:128-n8:16:32:64-S128"
target triple = "x86_64-pc-linux-gnu"

@.str = private unnamed_addr constant [5 x i8] c"%d%d\00", align 1
@.str.1 = private unnamed_addr constant [3 x i8] c"%d\00", align 1
@.str.2 = private unnamed_addr constant [3 x i8] c"no\00", align 1
@.str.3 = private unnamed_addr constant [4 x i8] c"yes\00", align 1

; Function Attrs: nofree nounwind sspstrong uwtable
define dso_local i32 @main() local_unnamed_addr #0 {
  %1 = alloca i32, align 4
  %2 = alloca i32, align 4
  %3 = alloca [1000 x i32], align 16
  %4 = bitcast i32* %1 to i8*
  call void @llvm.lifetime.start.p0i8(i64 4, i8* nonnull %4) #4
  %5 = bitcast i32* %2 to i8*
  call void @llvm.lifetime.start.p0i8(i64 4, i8* nonnull %5) #4
  %6 = bitcast [1000 x i32]* %3 to i8*
  call void @llvm.lifetime.start.p0i8(i64 4000, i8* nonnull %6) #4
  %7 = call i32 (i8*, ...) @__isoc99_scanf(i8* getelementptr inbounds ([5 x i8], [5 x i8]* @.str, i64 0, i64 0), i32* nonnull %1, i32* nonnull %2)
  %8 = load i32, i32* %1, align 4, !tbaa !5
  %9 = icmp sgt i32 %8, 0
  br i1 %9, label %15, label %10

10:                                               ; preds = %15, %0
  %11 = phi i32 [ %8, %0 ], [ %20, %15 ]
  %12 = load i32, i32* %2, align 4
  %13 = call i32 @llvm.smax.i32(i32 %11, i32 0)
  %14 = zext i32 %13 to i64
  br label %23

15:                                               ; preds = %0, %15
  %16 = phi i64 [ %19, %15 ], [ 0, %0 ]
  %17 = getelementptr inbounds [1000 x i32], [1000 x i32]* %3, i64 0, i64 %16
  %18 = call i32 (i8*, ...) @__isoc99_scanf(i8* getelementptr inbounds ([3 x i8], [3 x i8]* @.str.1, i64 0, i64 0), i32* nonnull %17)
  %19 = add nuw nsw i64 %16, 1
  %20 = load i32, i32* %1, align 4, !tbaa !5
  %21 = sext i32 %20 to i64
  %22 = icmp slt i64 %19, %21
  br i1 %22, label %15, label %10, !llvm.loop !9

23:                                               ; preds = %10, %46
  %24 = phi i64 [ 0, %10 ], [ %28, %46 ]
  %25 = phi i64 [ 1, %10 ], [ %49, %46 ]
  %26 = icmp eq i64 %24, %14
  br i1 %26, label %52, label %27

27:                                               ; preds = %23
  %28 = add nuw nsw i64 %24, 1
  %29 = trunc i64 %28 to i32
  %30 = icmp sgt i32 %11, %29
  br i1 %30, label %31, label %46

31:                                               ; preds = %27
  %32 = getelementptr inbounds [1000 x i32], [1000 x i32]* %3, i64 0, i64 %24
  %33 = load i32, i32* %32, align 4, !tbaa !5
  br label %34

34:                                               ; preds = %31, %40
  %35 = phi i64 [ %25, %31 ], [ %41, %40 ]
  %36 = getelementptr inbounds [1000 x i32], [1000 x i32]* %3, i64 0, i64 %35
  %37 = load i32, i32* %36, align 4, !tbaa !5
  %38 = add nsw i32 %37, %33
  %39 = icmp eq i32 %38, %12
  br i1 %39, label %44, label %40

40:                                               ; preds = %34
  %41 = add nuw nsw i64 %35, 1
  %42 = trunc i64 %41 to i32
  %43 = icmp eq i32 %11, %42
  br i1 %43, label %46, label %34, !llvm.loop !11

44:                                               ; preds = %34
  %45 = trunc i64 %35 to i32
  br label %46

46:                                               ; preds = %40, %44, %27
  %47 = phi i32 [ %29, %27 ], [ %45, %44 ], [ %11, %40 ]
  %48 = icmp eq i32 %47, %11
  %49 = add nuw nsw i64 %25, 1
  br i1 %48, label %23, label %50, !llvm.loop !12

50:                                               ; preds = %46
  %51 = trunc i64 %24 to i32
  br label %52

52:                                               ; preds = %23, %50
  %53 = phi i32 [ %51, %50 ], [ %13, %23 ]
  %54 = icmp eq i32 %53, %11
  %55 = select i1 %54, i8* getelementptr inbounds ([3 x i8], [3 x i8]* @.str.2, i64 0, i64 0), i8* getelementptr inbounds ([4 x i8], [4 x i8]* @.str.3, i64 0, i64 0)
  %56 = call i32 (i8*, ...) @printf(i8* nonnull dereferenceable(1) %55)
  call void @llvm.lifetime.end.p0i8(i64 4000, i8* nonnull %6) #4
  call void @llvm.lifetime.end.p0i8(i64 4, i8* nonnull %5) #4
  call void @llvm.lifetime.end.p0i8(i64 4, i8* nonnull %4) #4
  ret i32 0
}

; Function Attrs: argmemonly mustprogress nofree nosync nounwind willreturn
declare void @llvm.lifetime.start.p0i8(i64 immarg, i8* nocapture) #1

; Function Attrs: nofree nounwind
declare noundef i32 @__isoc99_scanf(i8* nocapture noundef readonly, ...) local_unnamed_addr #2

; Function Attrs: nofree nounwind
declare noundef i32 @printf(i8* nocapture noundef readonly, ...) local_unnamed_addr #2

; Function Attrs: argmemonly mustprogress nofree nosync nounwind willreturn
declare void @llvm.lifetime.end.p0i8(i64 immarg, i8* nocapture) #1

; Function Attrs: nofree nosync nounwind readnone speculatable willreturn
declare i32 @llvm.smax.i32(i32, i32) #3


!llvm.module.flags = !{!0, !1, !2, !3}
!llvm.ident = !{!4}

!0 = !{i32 1, !"wchar_size", i32 4}
!1 = !{i32 7, !"PIC Level", i32 2}
!2 = !{i32 7, !"PIE Level", i32 2}
!3 = !{i32 7, !"uwtable", i32 1}
!4 = !{!"clang version 13.0.0"}
!5 = !{!6, !6, i64 0}
!6 = !{!"int", !7, i64 0}
!7 = !{!"omnipotent char", !8, i64 0}
!8 = !{!"Simple C/C++ TBAA"}
!9 = distinct !{!9, !10}
!10 = !{!"llvm.loop.mustprogress"}
!11 = distinct !{!11, !10}
!12 = distinct !{!12, !10}
